target datalayout = "e-m:e-p270:32:32-p271:32:32-p272:64:64-i64:64-i128:128-f80:128-n8:16:32:64-S128"
target triple = "x86_64-pc-linux-gnu"

; Function Attrs: nounwind uwtable
define ptr @lv_strchr(ptr noundef %0, i32 noundef %1) #0 {
  %3 = alloca ptr, align 8
  %4 = alloca ptr, align 8
  %5 = alloca i32, align 4
  store ptr %0, ptr %4, align 8, !tbaa !3
  store i32 %1, ptr %5, align 4, !tbaa !15
  br label %6

6:                                                ; preds = %21, %2
  %7 = load ptr, ptr %4, align 8, !tbaa !3
  %8 = load i8, ptr %7, align 1, !tbaa !9
  %9 = sext i8 %8 to i32
  %10 = load i32, ptr %5, align 4, !tbaa !15
  %11 = icmp eq i32 %9, %10
  br i1 %11, label %12, label %14

12:                                               ; preds = %6
  %13 = load ptr, ptr %4, align 8, !tbaa !3
  store ptr %13, ptr %3, align 8
  br label %25

14:                                               ; preds = %6
  %15 = load ptr, ptr %4, align 8, !tbaa !3
  %16 = load i8, ptr %15, align 1, !tbaa !9
  %17 = sext i8 %16 to i32
  %18 = icmp eq i32 %17, 0
  br i1 %18, label %19, label %20

19:                                               ; preds = %14
  br label %24

20:                                               ; preds = %14
  br label %21

21:                                               ; preds = %20
  %22 = load ptr, ptr %4, align 8, !tbaa !3
  %23 = getelementptr inbounds nuw i8, ptr %22, i32 1
  store ptr %23, ptr %4, align 8, !tbaa !3
  br label %6

24:                                               ; preds = %19
  store ptr null, ptr %3, align 8
  br label %25

25:                                               ; preds = %24, %12
  %26 = load ptr, ptr %3, align 8
  ret ptr %26
}