; Function Attrs: nofree norecurse nosync nounwind memory(argmem: read) uwtable
define noundef ptr @lv_strchr(ptr noundef readonly %0, i32 noundef %1) local_unnamed_addr #2 {
  %3 = load i8, ptr %0, align 1, !tbaa !3
  %4 = sext i8 %3 to i32
  %5 = icmp eq i32 %1, %4
  br i1 %5, label %._crit_edge, label %.lr.ph

.lr.ph:                                           ; preds = %2, %8
  %6 = phi i8 [ %10, %8 ], [ %3, %2 ]
  %.057 = phi ptr [ %9, %8 ], [ %0, %2 ]
  %7 = icmp eq i8 %6, 0
  br i1 %7, label %._crit_edge, label %8

8:                                                ; preds = %.lr.ph
  %9 = getelementptr inbounds nuw i8, ptr %.057, i64 1
  %10 = load i8, ptr %9, align 1, !tbaa !3
  %11 = sext i8 %10 to i32
  %12 = icmp eq i32 %1, %11
  br i1 %12, label %._crit_edge, label %.lr.ph

._crit_edge:                                      ; preds = %8, %.lr.ph, %2
  %.0 = phi ptr [ %0, %2 ], [ null, %.lr.ph ], [ %9, %8 ]
  ret ptr %.0
}